; Function Attrs: mustprogress nofree norecurse nosync nounwind willreturn memory(argmem: read) uwtable
define internal range(i32 -1, 2) i32 @qsortCompareItemPointers(ptr noundef readonly captures(none) %0, ptr noundef readonly captures(none) %1) #3 {
  %.val.i = load i16, ptr %0, align 2
  %3 = getelementptr i8, ptr %0, i64 2
  %.val5.i = load i16, ptr %3, align 2
  %4 = zext i16 %.val.i to i64
  %5 = zext i16 %.val5.i to i64
  %6 = shl nuw i64 %4, 48
  %7 = shl nuw nsw i64 %5, 32
  %8 = or disjoint i64 %7, %6
  %9 = getelementptr i8, ptr %0, i64 4
  %.val8.i = load i16, ptr %9, align 2
  %10 = zext i16 %.val8.i to i64
  %11 = or disjoint i64 %8, %10
  %.val6.i = load i16, ptr %1, align 2
  %12 = getelementptr i8, ptr %1, i64 2
  %.val7.i = load i16, ptr %12, align 2
  %13 = zext i16 %.val6.i to i64
  %14 = zext i16 %.val7.i to i64
  %15 = shl nuw i64 %13, 48
  %16 = shl nuw nsw i64 %14, 32
  %17 = or disjoint i64 %16, %15
  %18 = getelementptr i8, ptr %1, i64 4
  %.val9.i = load i16, ptr %18, align 2
  %19 = zext i16 %.val9.i to i64
  %20 = or disjoint i64 %17, %19
  %21 = tail call range(i32 -1, 2) i32 @llvm.ucmp.i32.i64(i64 range(i64 0, -4294901760) %11, i64 range(i64 0, -4294901760) %20)
  ret i32 %21
}